(dp1
S'sage.arith.all'
p2
(lp3
S'CRT'
p4
aS'CRT_basis'
p5
aS'CRT_list'
p6
aS'CRT_vectors'
p7
aS'Euler_Phi'
p8
aS'GCD'
p9
aS'LCM'
p10
aS'Moebius'
p11
aS'Sigma'
p12
aS'algdep'
p13
aS'bernoulli'
p14
aS'binomial'
p15
aS'binomial_coefficients'
p16
aS'continuant'
p17
aS'crt'
p18
aS'dedekind_sum'
p19
aS'differences'
p20
aS'divisors'
p21
aS'ellipsis_iter'
p22
aS'ellipsis_range'
p23
aS'eratosthenes'
p24
aS'euler_phi'
p25
aS'factor'
p26
aS'factorial'
p27
aS'falling_factorial'
p28
aS'four_squares'
p29
aS'fundamental_discriminant'
p30
aS'gcd'
p31
aS'get_gcd'
p32
aS'get_inverse_mod'
p33
aS'hilbert_conductor'
p34
aS'hilbert_conductor_inverse'
p35
aS'hilbert_symbol'
p36
aS'integer_ceil'
p37
aS'integer_floor'
p38
aS'inverse_mod'
p39
aS'is_power_of_two'
p40
aS'is_prime'
p41
aS'is_prime_power'
p42
aS'is_pseudoprime'
p43
aS'is_pseudoprime_power'
p44
aS'is_pseudoprime_small_power'
p45
aS'is_square'
p46
aS'is_squarefree'
p47
aS'jacobi_symbol'
p48
aS'kronecker'
p49
aS'kronecker_symbol'
p50
aS'lcm'
p51
aS'legendre_symbol'
p52
aS'moebius'
p53
aS'mqrr_rational_reconstruction'
p54
aS'multinomial'
p55
aS'multinomial_coefficients'
p56
aS'next_prime'
p57
aS'next_prime_power'
p58
aS'next_probable_prime'
p59
aS'nth_prime'
p60
aS'number_of_divisors'
p61
aS'odd_part'
p62
aS'power_mod'
p63
aS'previous_prime'
p64
aS'previous_prime_power'
p65
aS'prime_divisors'
p66
aS'prime_factors'
p67
aS'prime_powers'
p68
aS'prime_range'
p69
aS'prime_to_m_part'
p70
aS'primes'
p71
aS'primes_first_n'
p72
aS'primitive_root'
p73
aS'quadratic_residues'
p74
aS'radical'
p75
aS'random_prime'
p76
aS'rational_reconstruction'
p77
aS'rising_factorial'
p78
aS'sigma'
p79
aS'sort_complex_numbers_for_display'
p80
aS'squarefree_divisors'
p81
aS'srange'
p82
aS'subfactorial'
p83
aS'sum_of_k_squares'
p84
aS'sxrange'
p85
aS'three_squares'
p86
aS'trial_division'
p87
aS'two_squares'
p88
aS'valuation'
p89
aS'xgcd'
p90
aS'xkcd'
p91
aS'xlcm'
p92
aS'xsrange'
p93
asS'sage.sandpiles.all'
p94
(lp95
S'Sandpile'
p96
aS'SandpileConfig'
p97
aS'SandpileDivisor'
p98
aS'absolute_import'
p99
aS'admissible_partitions'
p100
aS'aztec_sandpile'
p101
aS'complete_sandpile'
p102
aS'firing_graph'
p103
aS'firing_vector'
p104
aS'glue_graphs'
p105
aS'grid_sandpile'
p106
aS'lazy_import'
p107
aS'min_cycles'
p108
aS'parallel_firing_graph'
p109
aS'partition_sandpile'
p110
aS'random_DAG'
p111
aS'random_digraph'
p112
aS'sandlib'
p113
aS'sandpiles'
p114
aS'triangle_sandpile'
p115
aS'wilmes_algorithm'
p116
asS'sage.dynamics.interval_exchanges.all'
p117
(lp118
S'iet'
p119
ag107
asS'sage.dynamics.flat_surfaces.all'
p120
(lp121
S'AbelianStrata'
p122
aS'AbelianStratum'
p123
aS'QuadraticStratum'
p124
ag107
as.